Certificate:
    Data:
        Version: 3 (0x2)
        Serial Number: 3247478388152106237 (0x2d115c635d907cfd)
    Signature Algorithm: sha1WithRSAEncryption
        Issuer: C=US, O=The Go Daddy Group, Inc., OU=Go Daddy Class 2 Certification Authority
        Validity
            Not Before: Mar  8 01:01:57 2015 GMT
            Not After : Mar  7 01:06:57 2016 GMT
        Subject: O=Filippo Pwn'ing Limited, L=Earth, CN=berserk.filippo.io
        Subject Public Key Info:
            Public Key Algorithm: rsaEncryption
                Public-Key: (2048 bit)
                Modulus:
                    00:a6:5f:b8:79:81:4a:6e:c9:81:49:af:4c:65:d0:
                    18:04:81:c7:3d:0e:fa:51:f5:d6:14:c3:24:3d:9c:
                    2c:b0:b9:75:ea:f4:30:d4:7e:76:f4:c2:81:dc:af:
                    26:51:da:4b:f0:f7:48:ea:17:00:4e:56:f9:54:d8:
                    4b:52:44:b0:4d:a4:c7:ed:6b:3f:80:ea:93:02:f2:
                    0a:49:06:4c:8a:fe:1e:10:c4:8a:fa:66:77:52:31:
                    33:67:4b:1d:a8:56:f2:9a:65:e1:dc:2b:49:79:45:
                    21:37:a3:60:56:e8:f6:d3:b5:ed:0c:5d:8c:1e:b6:
                    f8:e7:36:93:22:6a:e9:35:98:7b:67:e0:98:d7:bf:
                    6f:85:a6:39:1e:dc:f1:3b:c8:95:48:7f:a0:43:fc:
                    33:1f:2e:ec:8a:e5:5a:14:41:01:e4:41:79:f5:2d:
                    5d:d6:40:70:56:4b:3b:2d:a2:55:10:d8:33:a5:c0:
                    e0:c1:b6:2d:5e:61:c0:87:fd:23:86:69:25:a8:ae:
                    fd:fe:26:5d:f4:fb:ed:da:b5:c7:72:a0:d3:f5:60:
                    5d:91:f8:b9:88:37:31:80:26:bc:13:e1:8e:63:73:
                    95:9a:b1:40:1f:38:00:b0:38:dd:fc:43:18:78:23:
                    f3:62:28:13:7b:07:e3:2c:39:80:1c:cc:94:cd:02:
                    d7:05
                Exponent: 65537 (0x10001)
        X509v3 extensions:
            X509v3 Key Usage: critical
                Digital Signature, Key Encipherment
            X509v3 Extended Key Usage: 
                TLS Web Server Authentication, TLS Web Client Authentication
            X509v3 Basic Constraints: critical
                CA:FALSE
            X509v3 Subject Key Identifier: 
                DF:28:27:58:D4:84:0D:1D:16:4B:02:41:2D:F8:F5:D1:2C:4E:83:3D
            X509v3 Authority Key Identifier: 
                keyid:D2:C4:B0:D2:91:D4:4C:11:71:B3:61:CB:3D:A1:FE:DD:A8:6A:D4:E3

            X509v3 Subject Alternative Name: 
                DNS:berserk.filippo.io
    Signature Algorithm: sha1WithRSAEncryption
         00:00:00:00:00:00:00:00:00:00:00:00:00:00:00:00:00:00:
         00:00:00:00:00:00:00:00:00:00:00:00:00:00:00:00:00:00:
         00:00:00:00:00:00:00:00:00:00:00:00:00:00:00:00:00:00:
         00:00:00:00:00:00:00:00:00:00:00:00:00:00:00:00:00:00:
         00:00:00:00:00:00:00:00:00:00:00:00:00:00:00:00:00:00:
         00:00:00:00:00:00:00:00:00:00:00:00:00:00:00:00:00:00:
         00:00:00:00:00:00:00:00:00:00:00:00:00:00:00:00:00:00:
         00:00:00:00:00:00:00:00:00:00:00:00:00:00:00:00:00:00:
         00:00:00:00:00:00:00:00:00:00:00:00:00:00:00:00:00:00:
         00:00:00:00:00:00:00:00:00:28:53:d6:60:00:00:00:00:00:
         00:00:00:b7:19:f9:00:00:00:00:00:00:00:00:00:00:00:00:
         00:00:00:00:00:00:00:00:00:00:00:00:00:00:00:00:00:00:
         00:00:ce:3c:c8:e5:33:83:36:e4:27:3f:2e:1b:8d:39:10:77:
         e1:98:8a:f2:3a:4d:ae:c9:f6:06:96:f4:18:71:25:74:7b:ef:
         3f:5c:30:47


-----BEGIN CERTIFICATE-----
MIID1DCCArygAwIBAgIILRFcY12QfP0wDQYJKoZIhvcNAQEFBQAwYzELMAkGA1UE
BhMCVVMxITAfBgNVBAoTGFRoZSBHbyBEYWRkeSBHcm91cCwgSW5jLjExMC8GA1UE
CxMoR28gRGFkZHkgQ2xhc3MgMiBDZXJ0aWZpY2F0aW9uIEF1dGhvcml0eTAeFw0x
NTAzMDgwMTAxNTdaFw0xNjAzMDcwMTA2NTdaME8xIDAeBgNVBAoTF0ZpbGlwcG8g
UHduJ2luZyBMaW1pdGVkMQ4wDAYDVQQHEwVFYXJ0aDEbMBkGA1UEAxMSYmVyc2Vy
ay5maWxpcHBvLmlvMIIBIjANBgkqhkiG9w0BAQEFAAOCAQ8AMIIBCgKCAQEApl+4
eYFKbsmBSa9MZdAYBIHHPQ76UfXWFMMkPZwssLl16vQw1H529MKB3K8mUdpL8PdI
6hcATlb5VNhLUkSwTaTH7Ws/gOqTAvIKSQZMiv4eEMSK+mZ3UjEzZ0sdqFbymmXh
3CtJeUUhN6NgVuj207XtDF2MHrb45zaTImrpNZh7Z+CY179vhaY5HtzxO8iVSH+g
Q/wzHy7siuVaFEEB5EF59S1d1kBwVks7LaJVENgzpcDgwbYtXmHAh/0jhmklqK79
/iZd9Pvt2rXHcqDT9WBdkfi5iDcxgCa8E+GOY3OVmrFAHzgAsDjd/EMYeCPzYigT
ewfjLDmAHMyUzQLXBQIDAQABo4GfMIGcMA4GA1UdDwEB/wQEAwIFoDAdBgNVHSUE
FjAUBggrBgEFBQcDAQYIKwYBBQUHAwIwDAYDVR0TAQH/BAIwADAdBgNVHQ4EFgQU
3ygnWNSEDR0WSwJBLfj10SxOgz0wHwYDVR0jBBgwFoAU0sSw0pHUTBFxs2HLPaH+
3ahq1OMwHQYDVR0RBBYwFIISYmVyc2Vyay5maWxpcHBvLmlvMA0GCSqGSIb3DQEB
BQUAA4IBAQAAAAAAAAAAAAAAAAAAAAAAAAAAAAAAAAAAAAAAAAAAAAAAAAAAAAAA
AAAAAAAAAAAAAAAAAAAAAAAAAAAAAAAAAAAAAAAAAAAAAAAAAAAAAAAAAAAAAAAA
AAAAAAAAAAAAAAAAAAAAAAAAAAAAAAAAAAAAAAAAAAAAAAAAAAAAAAAAAAAAAAAA
AAAAAAAAAAAAAAAAAAAAAAAAAAAAAAAAAAAAAAAAAAAAAAAoU9ZgAAAAAAAAAAC3
GfkAAAAAAAAAAAAAAAAAAAAAAAAAAAAAAAAAAAAAAAAAAM48yOUzgzbkJz8uG405
EHfhmIryOk2uyfYGlvQYcSV0e+8/XDBH
-----END CERTIFICATE-----
