Certificate:
    Data:
        Version: 3 (0x2)
        Serial Number: 138196 (0x21bd4)
    Signature Algorithm: sha1WithRSAEncryption
        Issuer: C=IL, O=StartCom Ltd., OU=Secure Digital Certificate Signing, CN=StartCom Class 2 Primary Intermediate Server CA
        Validity
            Not Before: Apr 15 03:08:09 2014 GMT
            Not After : Apr 14 23:42:01 2016 GMT
        Subject: description=m5iXr5QX78ykD5oZ, C=US, ST=California, L=San Francisco, O=Electronic Frontier Foundation, Inc., CN=www.eff.org/emailAddress=whois@eff.org
        Subject Public Key Info:
            Public Key Algorithm: rsaEncryption
                Public-Key: (4096 bit)
                Modulus:
                    00:d2:93:b3:02:d9:39:97:19:31:2c:7d:64:ef:62:
                    26:79:98:42:3e:89:6d:a0:8c:65:a4:18:23:ec:3d:
                    ed:51:58:a4:bc:f2:2e:85:00:f9:e4:cc:c2:9f:28:
                    1c:23:e0:f5:ed:c7:08:db:25:52:97:fc:f1:2c:ac:
                    2d:81:92:60:fa:30:d9:a0:31:18:74:6f:1b:35:9b:
                    83:29:97:0c:65:87:73:c3:7c:6c:6e:82:82:1a:f0:
                    07:c6:a9:b1:f7:ac:a4:ce:fb:b2:c1:ae:ac:a4:cb:
                    7a:49:1c:85:be:e9:02:d5:ca:cf:49:cf:a0:b2:71:
                    4d:15:25:fe:98:77:93:e9:7d:ca:84:69:3f:b7:4f:
                    f4:23:df:f6:b0:e0:9e:36:ca:8f:67:31:56:ad:6d:
                    10:bd:e0:90:31:ad:9f:8b:fd:cf:3e:be:2d:b8:8d:
                    ef:a4:80:e3:5f:c5:78:56:58:3f:95:e2:de:d8:55:
                    a3:14:cb:17:8b:16:6e:cf:68:49:42:64:ee:35:e2:
                    79:2d:86:cd:ad:41:57:1d:97:27:8b:d9:b7:a6:a0:
                    af:56:4b:4a:ff:17:97:14:b3:c9:1d:ab:67:66:38:
                    3a:4d:d1:2a:73:c1:a6:9e:ea:25:c0:6c:fe:18:d0:
                    fe:f3:31:4f:1b:68:20:74:65:5e:28:45:44:cb:71:
                    bb:bb:42:58:66:1f:51:98:80:e4:2a:a5:90:51:92:
                    0c:6c:e6:6c:7f:11:30:01:6a:e1:fb:a0:a8:11:ad:
                    44:31:6b:e3:62:98:bf:08:cc:9f:45:30:d6:5f:1a:
                    c5:5c:78:51:02:c8:60:ac:c5:37:a6:31:dc:d7:b9:
                    ac:b1:b6:21:59:d6:6b:f1:a6:56:ff:2b:35:44:0f:
                    46:31:d1:d0:f0:3b:f1:04:ab:2c:3e:e4:b1:84:e6:
                    74:0f:fe:e9:72:7c:e0:40:f5:89:86:0d:0a:fb:f5:
                    26:e4:4d:ee:10:36:f9:02:48:7b:14:6d:18:d3:a0:
                    ad:7a:26:1f:99:86:17:46:e5:1b:ca:de:e3:b8:08:
                    0d:94:b5:c3:30:27:f1:3a:f2:ab:41:83:21:53:3c:
                    6a:44:d0:c2:f3:28:0b:d9:fc:3b:73:ef:a3:2a:e4:
                    98:63:26:b0:5b:3c:85:bf:f9:5b:97:1c:3c:16:a3:
                    74:7c:c4:b2:f6:26:da:b8:f4:cc:54:19:1b:9f:bd:
                    fa:be:b1:40:d7:eb:66:25:62:df:d0:95:55:ea:44:
                    2e:cd:1b:0d:c5:b6:91:60:70:05:e2:89:10:67:1c:
                    08:ed:65:9f:80:37:44:db:99:a4:8e:5e:76:49:0b:
                    47:ea:91:41:4f:c1:17:3b:35:21:ec:56:53:db:b0:
                    cf:1e:61
                Exponent: 65537 (0x10001)
        X509v3 extensions:
            X509v3 Basic Constraints: 
                CA:FALSE
            X509v3 Key Usage: 
                Digital Signature, Key Encipherment, Key Agreement
            X509v3 Extended Key Usage: 
                TLS Web Client Authentication, TLS Web Server Authentication
            X509v3 Subject Key Identifier: 
                AA:91:4B:40:EA:31:D2:42:44:5E:2D:9F:CF:7E:F0:BF:25:24:59:08
            X509v3 Authority Key Identifier: 
                keyid:11:DB:23:45:FD:54:CC:6A:71:6F:84:8A:03:D7:BE:F7:01:2F:26:86

            X509v3 Subject Alternative Name: 
                DNS:www.eff.org, DNS:eff.org, DNS:*.eff.org
            X509v3 Certificate Policies: 
                Policy: 2.23.140.1.2.2
                Policy: 1.3.6.1.4.1.23223.1.2.3
                  CPS: http://www.startssl.com/policy.pdf
                  User Notice:
                    Organization: StartCom Certification Authority
                    Number: 1
                    Explicit Text: This certificate was issued according to the Class 2 Validation requirements of the StartCom CA policy, reliance only for the intended purpose in compliance of the relying party obligations.

            X509v3 CRL Distribution Points: 

                Full Name:
                  URI:http://crl.startssl.com/crt2-crl.crl

            Authority Information Access: 
                OCSP - URI:http://ocsp.startssl.com/sub/class2/server/ca
                CA Issuers - URI:http://aia.startssl.com/certs/sub.class2.server.ca.crt

            X509v3 Issuer Alternative Name: 
                URI:http://www.startssl.com/
    Signature Algorithm: sha1WithRSAEncryption
         cb:e8:34:59:fe:58:06:e1:f1:54:b4:58:4f:35:5b:cc:2a:67:
         8f:71:5c:22:2f:6b:0f:21:80:4e:f4:59:5a:54:e8:3f:dd:cc:
         ca:53:c2:4e:11:4c:0e:92:e8:2a:1a:1e:f1:6d:6e:01:d3:e7:
         c1:0b:0c:e7:be:b1:3e:85:fd:d7:98:ba:0c:c3:9e:32:8e:90:
         68:ae:31:11:0b:b2:30:c3:a4:3a:30:76:3a:22:56:9c:8b:eb:
         73:77:47:4a:93:6b:cc:b9:a2:ce:bf:ef:53:e8:34:9b:a1:d8:
         49:3f:53:4b:ce:16:89:98:ea:06:66:f9:19:c4:cd:8a:5c:41:
         c3:48:88:cd:5b:19:77:7a:ff:47:b7:6f:4f:fe:26:9c:20:19:
         65:3e:b9:e7:8b:70:86:c4:11:6d:f6:dd:ac:44:36:78:04:ea:
         00:14:81:17:17:32:12:47:b0:7e:a8:24:2e:76:f9:66:83:88:
         2a:01:a7:af:5d:8d:36:ee:32:ef:6d:a9:a0:59:c0:1f:dc:06:
         13:f3:1a:33:30:ca:37:14:43:57:de:ca:40:b9:0c:36:e6:7f:
         8b:4a:34:cc:fd:bc:c7:36:92:ee:8b:f1:8a:df:18:95:78:60:
         de:7e:b5:5f:00:70:6c:d5:52:20:ec:46:75:7a:3b:35:0b:eb:
         40:28:f8:3e
         
         -----BEGIN CERTIFICATE-----
MIIHszCCBpugAwIBAgIDAhvUMA0GCSqGSIb3DQEBBQUAMIGMMQswCQYDVQQGEwJJ
TDEWMBQGA1UEChMNU3RhcnRDb20gTHRkLjErMCkGA1UECxMiU2VjdXJlIERpZ2l0
YWwgQ2VydGlmaWNhdGUgU2lnbmluZzE4MDYGA1UEAxMvU3RhcnRDb20gQ2xhc3Mg
MiBQcmltYXJ5IEludGVybWVkaWF0ZSBTZXJ2ZXIgQ0EwHhcNMTQwNDE1MDMwODA5
WhcNMTYwNDE0MjM0MjAxWjCBuDEZMBcGA1UEDRMQbTVpWHI1UVg3OHlrRDVvWjEL
MAkGA1UEBhMCVVMxEzARBgNVBAgTCkNhbGlmb3JuaWExFjAUBgNVBAcTDVNhbiBG
cmFuY2lzY28xLTArBgNVBAoTJEVsZWN0cm9uaWMgRnJvbnRpZXIgRm91bmRhdGlv
biwgSW5jLjEUMBIGA1UEAxMLd3d3LmVmZi5vcmcxHDAaBgkqhkiG9w0BCQEWDXdo
b2lzQGVmZi5vcmcwggIiMA0GCSqGSIb3DQEBAQUAA4ICDwAwggIKAoICAQDSk7MC
2TmXGTEsfWTvYiZ5mEI+iW2gjGWkGCPsPe1RWKS88i6FAPnkzMKfKBwj4PXtxwjb
JVKX/PEsrC2BkmD6MNmgMRh0bxs1m4Mplwxlh3PDfGxugoIa8AfGqbH3rKTO+7LB
rqyky3pJHIW+6QLVys9Jz6CycU0VJf6Yd5PpfcqEaT+3T/Qj3/aw4J42yo9nMVat
bRC94JAxrZ+L/c8+vi24je+kgONfxXhWWD+V4t7YVaMUyxeLFm7PaElCZO414nkt
hs2tQVcdlyeL2bemoK9WS0r/F5cUs8kdq2dmODpN0Spzwaae6iXAbP4Y0P7zMU8b
aCB0ZV4oRUTLcbu7QlhmH1GYgOQqpZBRkgxs5mx/ETABauH7oKgRrUQxa+NimL8I
zJ9FMNZfGsVceFECyGCsxTemMdzXuayxtiFZ1mvxplb/KzVED0Yx0dDwO/EEqyw+
5LGE5nQP/ulyfOBA9YmGDQr79SbkTe4QNvkCSHsUbRjToK16Jh+ZhhdG5RvK3uO4
CA2UtcMwJ/E68qtBgyFTPGpE0MLzKAvZ/Dtz76Mq5JhjJrBbPIW/+VuXHDwWo3R8
xLL2Jtq49MxUGRufvfq+sUDX62YlYt/QlVXqRC7NGw3FtpFgcAXiiRBnHAjtZZ+A
N0TbmaSOXnZJC0fqkUFPwRc7NSHsVlPbsM8eYQIDAQABo4IC7jCCAuowCQYDVR0T
BAIwADALBgNVHQ8EBAMCA6gwHQYDVR0lBBYwFAYIKwYBBQUHAwIGCCsGAQUFBwMB
MB0GA1UdDgQWBBSqkUtA6jHSQkReLZ/PfvC/JSRZCDAfBgNVHSMEGDAWgBQR2yNF
/VTManFvhIoD1773AS8mhjAqBgNVHREEIzAhggt3d3cuZWZmLm9yZ4IHZWZmLm9y
Z4IJKi5lZmYub3JnMIIBVgYDVR0gBIIBTTCCAUkwCAYGZ4EMAQICMIIBOwYLKwYB
BAGBtTcBAgMwggEqMC4GCCsGAQUFBwIBFiJodHRwOi8vd3d3LnN0YXJ0c3NsLmNv
bS9wb2xpY3kucGRmMIH3BggrBgEFBQcCAjCB6jAnFiBTdGFydENvbSBDZXJ0aWZp
Y2F0aW9uIEF1dGhvcml0eTADAgEBGoG+VGhpcyBjZXJ0aWZpY2F0ZSB3YXMgaXNz
dWVkIGFjY29yZGluZyB0byB0aGUgQ2xhc3MgMiBWYWxpZGF0aW9uIHJlcXVpcmVt
ZW50cyBvZiB0aGUgU3RhcnRDb20gQ0EgcG9saWN5LCByZWxpYW5jZSBvbmx5IGZv
ciB0aGUgaW50ZW5kZWQgcHVycG9zZSBpbiBjb21wbGlhbmNlIG9mIHRoZSByZWx5
aW5nIHBhcnR5IG9ibGlnYXRpb25zLjA1BgNVHR8ELjAsMCqgKKAmhiRodHRwOi8v
Y3JsLnN0YXJ0c3NsLmNvbS9jcnQyLWNybC5jcmwwgY4GCCsGAQUFBwEBBIGBMH8w
OQYIKwYBBQUHMAGGLWh0dHA6Ly9vY3NwLnN0YXJ0c3NsLmNvbS9zdWIvY2xhc3My
L3NlcnZlci9jYTBCBggrBgEFBQcwAoY2aHR0cDovL2FpYS5zdGFydHNzbC5jb20v
Y2VydHMvc3ViLmNsYXNzMi5zZXJ2ZXIuY2EuY3J0MCMGA1UdEgQcMBqGGGh0dHA6
Ly93d3cuc3RhcnRzc2wuY29tLzANBgkqhkiG9w0BAQUFAAOCAQEAy+g0Wf5YBuHx
VLRYTzVbzCpnj3FcIi9rDyGATvRZWlToP93MylPCThFMDpLoKhoe8W1uAdPnwQsM
576xPoX915i6DMOeMo6QaK4xEQuyMMOkOjB2OiJWnIvrc3dHSpNrzLmizr/vU+g0
m6HYST9TS84WiZjqBmb5GcTNilxBw0iIzVsZd3r/R7dvT/4mnCAZZT6554twhsQR
bfbdrEQ2eATqABSBFxcyEkewfqgkLnb5ZoOIKgGnr12NNu4y722poFnAH9wGE/Ma
MzDKNxRDV97KQLkMNuZ/i0o0zP28xzaS7ovxit8YlXhg3n61XwBwbNVSIOxGdXo7
NQvrQCj4Pg==
-----END CERTIFICATE-----
