Certificate:
    Data:
        Version: 3 (0x2)
        Serial Number:
            e9:03:68:85:ea:eb:1c:6c:43:0a:3f:3c:b7:d3:f0:6c
    Signature Algorithm: ecdsa-with-SHA256
        Issuer: C=GB, ST=Greater Manchester, L=Salford, O=COMODO CA Limited, CN=COMODO ECC Domain Validation Secure Server CA 2
        Validity
            Not Before: Feb 24 00:00:00 2015 GMT
            Not After : Sep 30 23:59:59 2015 GMT
        Subject: OU=Domain Control Validated, OU=PositiveSSL Multi-Domain, CN=sni35966.cloudflaressl.com
        Subject Public Key Info:
            Public Key Algorithm: id-ecPublicKey
                Public-Key: (256 bit)
                pub: 
                    04:d0:21:d6:42:95:e3:fa:7c:47:40:da:6c:bf:10:
                    8d:37:55:85:8e:bc:9c:a6:53:54:d0:28:8a:fa:36:
                    db:1b:04:c1:55:58:8c:27:67:c6:32:35:57:03:19:
                    fe:b7:9f:72:87:c3:76:7d:f5:e2:ea:90:52:6a:9b:
                    9c:be:8a:d3:1e
                ASN1 OID: prime256v1
        X509v3 extensions:
            X509v3 Authority Key Identifier: 
                keyid:40:09:61:67:F0:BC:83:71:4F:DE:12:08:2C:6F:D4:D4:2B:76:3D:96

            X509v3 Subject Key Identifier: 
                72:BF:DF:0A:33:31:6A:9E:F4:24:C0:31:41:6B:4F:F7:D2:73:82:BE
            X509v3 Key Usage: critical
                Digital Signature
            X509v3 Basic Constraints: critical
                CA:FALSE
            X509v3 Extended Key Usage: 
                TLS Web Server Authentication, TLS Web Client Authentication
            X509v3 Certificate Policies: 
                Policy: 1.3.6.1.4.1.6449.1.2.2.7
                  CPS: https://secure.comodo.com/CPS
                Policy: 2.23.140.1.2.1

            X509v3 CRL Distribution Points: 

                Full Name:
                  URI:http://crl.comodoca4.com/COMODOECCDomainValidationSecureServerCA2.crl

            Authority Information Access: 
                CA Issuers - URI:http://crt.comodoca4.com/COMODOECCDomainValidationSecureServerCA2.crt
                OCSP - URI:http://ocsp.comodoca4.com

            X509v3 Subject Alternative Name: 
                DNS:sni35966.cloudflaressl.com, DNS:*.adestramentodecaessaopaulo.com.br, DNS:*.adonaiconsultoria.com.br, DNS:*.allcareocupacional.com.br, DNS:*.areisadvocacia.com.br, DNS:*.bitsecure.eu, DNS:*.bluegg33.com, DNS:*.brastemp-servicos-tecnicos.com.br, DNS:*.catcassol.com.br, DNS:*.cirurgicaceron.com.br, DNS:*.crazyfocia.pl, DNS:*.deepviz.com, DNS:*.fabricadesaboresmanaus.com.br, DNS:*.familiawiggers.com.br, DNS:*.fjmpc.com, DNS:*.fococlaro.com.br, DNS:*.ganglol.co, DNS:*.industriacoiffure.ca, DNS:*.lifeofvibrationalenergy.com, DNS:*.malestripperbenidorm.com, DNS:*.mundotuneles.com, DNS:*.myweddingday.org.uk, DNS:*.pamproducts.com, DNS:*.poochiebypujol.com.br, DNS:*.pousadatrezedemarco.com.br, DNS:*.pregnancy-motherhood.com, DNS:*.sbra2015.com.br, DNS:*.systemcleandistribuidora.com.br, DNS:*.upsdailygag.com, DNS:*.wecanhelpyouforever.com, DNS:adestramentodecaessaopaulo.com.br, DNS:adonaiconsultoria.com.br, DNS:allcareocupacional.com.br, DNS:areisadvocacia.com.br, DNS:bitsecure.eu, DNS:bluegg33.com, DNS:brastemp-servicos-tecnicos.com.br, DNS:catcassol.com.br, DNS:cirurgicaceron.com.br, DNS:crazyfocia.pl, DNS:deepviz.com, DNS:fabricadesaboresmanaus.com.br, DNS:familiawiggers.com.br, DNS:fjmpc.com, DNS:fococlaro.com.br, DNS:ganglol.co, DNS:industriacoiffure.ca, DNS:lifeofvibrationalenergy.com, DNS:malestripperbenidorm.com, DNS:mundotuneles.com, DNS:myweddingday.org.uk, DNS:pamproducts.com, DNS:poochiebypujol.com.br, DNS:pousadatrezedemarco.com.br, DNS:pregnancy-motherhood.com, DNS:sbra2015.com.br, DNS:systemcleandistribuidora.com.br, DNS:upsdailygag.com, DNS:wecanhelpyouforever.com
    Signature Algorithm: ecdsa-with-SHA256
         30:44:02:20:2f:3e:d7:58:8e:b7:ac:5d:77:77:d3:ee:56:79:
         3d:f0:9e:72:5a:61:52:1b:36:ad:1d:fc:9d:ad:ee:e5:80:0e:
         02:20:32:ab:ea:0a:79:e7:4d:fd:36:f8:2d:a3:49:4d:2f:bb:
         56:ab:15:74:a9:74:72:59:4b:d9:2f:3d:fe:a8:0d:d4
         
         
         -----BEGIN CERTIFICATE-----
MIIJGjCCCMGgAwIBAgIRAOkDaIXq6xxsQwo/PLfT8GwwCgYIKoZIzj0EAwIwgZIx
CzAJBgNVBAYTAkdCMRswGQYDVQQIExJHcmVhdGVyIE1hbmNoZXN0ZXIxEDAOBgNV
BAcTB1NhbGZvcmQxGjAYBgNVBAoTEUNPTU9ETyBDQSBMaW1pdGVkMTgwNgYDVQQD
Ey9DT01PRE8gRUNDIERvbWFpbiBWYWxpZGF0aW9uIFNlY3VyZSBTZXJ2ZXIgQ0Eg
MjAeFw0xNTAyMjQwMDAwMDBaFw0xNTA5MzAyMzU5NTlaMGsxITAfBgNVBAsTGERv
bWFpbiBDb250cm9sIFZhbGlkYXRlZDEhMB8GA1UECxMYUG9zaXRpdmVTU0wgTXVs
dGktRG9tYWluMSMwIQYDVQQDExpzbmkzNTk2Ni5jbG91ZGZsYXJlc3NsLmNvbTBZ
MBMGByqGSM49AgEGCCqGSM49AwEHA0IABNAh1kKV4/p8R0DabL8QjTdVhY68nKZT
VNAoivo22xsEwVVYjCdnxjI1VwMZ/refcofDdn314uqQUmqbnL6K0x6jggccMIIH
GDAfBgNVHSMEGDAWgBRACWFn8LyDcU/eEggsb9TUK3Y9ljAdBgNVHQ4EFgQUcr/f
CjMxap70JMAxQWtP99Jzgr4wDgYDVR0PAQH/BAQDAgeAMAwGA1UdEwEB/wQCMAAw
HQYDVR0lBBYwFAYIKwYBBQUHAwEGCCsGAQUFBwMCME8GA1UdIARIMEYwOgYLKwYB
BAGyMQECAgcwKzApBggrBgEFBQcCARYdaHR0cHM6Ly9zZWN1cmUuY29tb2RvLmNv
bS9DUFMwCAYGZ4EMAQIBMFYGA1UdHwRPME0wS6BJoEeGRWh0dHA6Ly9jcmwuY29t
b2RvY2E0LmNvbS9DT01PRE9FQ0NEb21haW5WYWxpZGF0aW9uU2VjdXJlU2VydmVy
Q0EyLmNybDCBiAYIKwYBBQUHAQEEfDB6MFEGCCsGAQUFBzAChkVodHRwOi8vY3J0
LmNvbW9kb2NhNC5jb20vQ09NT0RPRUNDRG9tYWluVmFsaWRhdGlvblNlY3VyZVNl
cnZlckNBMi5jcnQwJQYIKwYBBQUHMAGGGWh0dHA6Ly9vY3NwLmNvbW9kb2NhNC5j
b20wggVjBgNVHREEggVaMIIFVoIac25pMzU5NjYuY2xvdWRmbGFyZXNzbC5jb22C
IyouYWRlc3RyYW1lbnRvZGVjYWVzc2FvcGF1bG8uY29tLmJyghoqLmFkb25haWNv
bnN1bHRvcmlhLmNvbS5icoIbKi5hbGxjYXJlb2N1cGFjaW9uYWwuY29tLmJyghcq
LmFyZWlzYWR2b2NhY2lhLmNvbS5icoIOKi5iaXRzZWN1cmUuZXWCDiouYmx1ZWdn
MzMuY29tgiMqLmJyYXN0ZW1wLXNlcnZpY29zLXRlY25pY29zLmNvbS5icoISKi5j
YXRjYXNzb2wuY29tLmJyghcqLmNpcnVyZ2ljYWNlcm9uLmNvbS5icoIPKi5jcmF6
eWZvY2lhLnBsgg0qLmRlZXB2aXouY29tgh8qLmZhYnJpY2FkZXNhYm9yZXNtYW5h
dXMuY29tLmJyghcqLmZhbWlsaWF3aWdnZXJzLmNvbS5icoILKi5mam1wYy5jb22C
EiouZm9jb2NsYXJvLmNvbS5icoIMKi5nYW5nbG9sLmNvghYqLmluZHVzdHJpYWNv
aWZmdXJlLmNhgh0qLmxpZmVvZnZpYnJhdGlvbmFsZW5lcmd5LmNvbYIaKi5tYWxl
c3RyaXBwZXJiZW5pZG9ybS5jb22CEioubXVuZG90dW5lbGVzLmNvbYIVKi5teXdl
ZGRpbmdkYXkub3JnLnVrghEqLnBhbXByb2R1Y3RzLmNvbYIXKi5wb29jaGllYnlw
dWpvbC5jb20uYnKCHCoucG91c2FkYXRyZXplZGVtYXJjby5jb20uYnKCGioucHJl
Z25hbmN5LW1vdGhlcmhvb2QuY29tghEqLnNicmEyMDE1LmNvbS5icoIhKi5zeXN0
ZW1jbGVhbmRpc3RyaWJ1aWRvcmEuY29tLmJyghEqLnVwc2RhaWx5Z2FnLmNvbYIZ
Ki53ZWNhbmhlbHB5b3Vmb3JldmVyLmNvbYIhYWRlc3RyYW1lbnRvZGVjYWVzc2Fv
cGF1bG8uY29tLmJyghhhZG9uYWljb25zdWx0b3JpYS5jb20uYnKCGWFsbGNhcmVv
Y3VwYWNpb25hbC5jb20uYnKCFWFyZWlzYWR2b2NhY2lhLmNvbS5icoIMYml0c2Vj
dXJlLmV1ggxibHVlZ2czMy5jb22CIWJyYXN0ZW1wLXNlcnZpY29zLXRlY25pY29z
LmNvbS5icoIQY2F0Y2Fzc29sLmNvbS5icoIVY2lydXJnaWNhY2Vyb24uY29tLmJy
gg1jcmF6eWZvY2lhLnBsggtkZWVwdml6LmNvbYIdZmFicmljYWRlc2Fib3Jlc21h
bmF1cy5jb20uYnKCFWZhbWlsaWF3aWdnZXJzLmNvbS5icoIJZmptcGMuY29tghBm
b2NvY2xhcm8uY29tLmJyggpnYW5nbG9sLmNvghRpbmR1c3RyaWFjb2lmZnVyZS5j
YYIbbGlmZW9mdmlicmF0aW9uYWxlbmVyZ3kuY29tghhtYWxlc3RyaXBwZXJiZW5p
ZG9ybS5jb22CEG11bmRvdHVuZWxlcy5jb22CE215d2VkZGluZ2RheS5vcmcudWuC
D3BhbXByb2R1Y3RzLmNvbYIVcG9vY2hpZWJ5cHVqb2wuY29tLmJyghpwb3VzYWRh
dHJlemVkZW1hcmNvLmNvbS5icoIYcHJlZ25hbmN5LW1vdGhlcmhvb2QuY29tgg9z
YnJhMjAxNS5jb20uYnKCH3N5c3RlbWNsZWFuZGlzdHJpYnVpZG9yYS5jb20uYnKC
D3Vwc2RhaWx5Z2FnLmNvbYIXd2VjYW5oZWxweW91Zm9yZXZlci5jb20wCgYIKoZI
zj0EAwIDRwAwRAIgLz7XWI63rF13d9PuVnk98J5yWmFSGzatHfydre7lgA4CIDKr
6gp55039Nvgto0lNL7tWqxV0qXRyWUvZLz3+qA3U
-----END CERTIFICATE-----
