Certificate:
    Data:
        Version: 3 (0x2)
        Serial Number: 1015932634 (0x3c8de6da)
    Signature Algorithm: sha1WithRSAEncryption
        Issuer: C=ww, O=global, OU=pki, CN=rootca
        Validity
            Not Before: Mar 12 11:30:34 2002 GMT
            Not After : Jan  2 11:30:34 2018 GMT
        Subject: C=ww, O=global, OU=pki, CN=issuingca
        Subject Public Key Info:
            Public Key Algorithm: rsaEncryption
                Public-Key: (2048 bit)
                Modulus:
                    00:c6:96:09:b3:a8:f5:e5:61:1a:73:b5:c7:8e:b8:
                    29:a6:71:78:12:89:53:6c:4f:50:7d:a3:03:2e:20:
                    be:e7:66:9a:03:28:ab:56:23:d9:16:7f:77:7d:70:
                    c5:35:db:2f:41:80:b5:58:fc:f4:73:d6:0a:6f:95:
                    85:70:e2:da:77:fa:17:c5:56:c8:0b:bf:9e:07:b2:
                    5b:04:60:97:de:d9:e9:37:db:73:1b:03:6e:01:35:
                    4f:85:3e:2e:93:c0:93:bc:6a:b0:d0:53:bc:20:63:
                    58:3d:8a:d3:86:20:82:b1:06:67:85:b4:67:ce:82:
                    af:0e:a3:28:9b:e5:ce:31:ef:95:31:3c:2c:f7:4b:
                    18:ee:2c:f3:e3:e7:71:e8:84:f0:b2:6c:c2:d3:a5:
                    b3:36:f8:2f:70:0b:03:7d:df:e1:54:66:27:f5:7f:
                    45:e9:28:12:d1:14:01:6b:30:a3:8e:90:bc:5b:61:
                    52:30:ed:9e:44:8a:41:e0:3f:1b:38:50:d8:57:4b:
                    54:be:d5:8a:8f:55:2e:d5:ad:34:09:bf:87:44:a8:
                    2a:96:c7:79:60:c4:75:3f:c3:a6:96:9a:37:60:8b:
                    1f:15:ba:80:1b:95:e2:29:21:1d:09:86:01:29:67:
                    e2:01:e0:9f:dd:8c:28:1e:6f:36:b3:45:19:a1:3d:
                    a7:51
                Exponent: 65537 (0x10001)
        X509v3 extensions:
            X509v3 Basic Constraints: 
                CA:TRUE, pathlen:9
            X509v3 Key Usage: critical
                Digital Signature, Non Repudiation, Key Encipherment, Data Encipherment, Key Agreement, Certificate Sign, CRL Sign
            X509v3 Certificate Policies: 
                Policy: 1.3.6.1.4.1.4007.4.2.3.2
                  User Notice:
                    Explicit Text: Reliance on this certificate by any party assumes acceptance of the standard terms and conditions of use and the Certification Practice Statement which can be found at the Cable & Wireless WebSite.
                  CPS: http://www.cwsecurity.net

            X509v3 Authority Key Identifier: 
                keyid:A7:16:75:9C:02:C3:1F:6E:D9:10:D6:93:29:C0:C4:FF:85:89:11:7E

            X509v3 Subject Key Identifier: 
                37:B9:01:4D:30:F8:FC:C2:49:01:AD:E9:3C:ED:83:56:48:BA:55:77
    Signature Algorithm: sha1WithRSAEncryption
         cf:91:52:d0:91:92:ba:24:77:e9:22:2c:a0:ae:62:48:0b:9c:
         b6:24:7f:dd:81:63:82:3a:b2:f1:6e:76:bd:3e:43:b7:42:9e:
         fd:cf:d0:cf:3a:33:f5:aa:d8:f1:95:40:b4:32:5e:61:81:15:
         3c:11:90:ab:d9:a0:d6:d4:40:98:6e:e3:2a:1a:ee:0a:95:9b:
         29:a7:e3:ea:2b:a4:82:f6:bd:da:9d:e3:ca:21:72:83:30:a1:
         f2:2b:88:60:46:9b:b4:22:1e:4e:7b:8f:31:97:f1:fd:59:7b:
         6f:f7:2f:71:fb:08:3f:ec:8f:31:b9:ea:41:07:6e:cb:f0:57:
         f1:6c:f1:82:96:d7:60:ce:f6:c2:83:c8:b0:f2:d6:8c:18:b7:
         00:33:6d:0b:f3:d6:19:93:30:b7:da:d5:31:ee:d2:c4:5f:b1:
         26:db:75:fb:b2:00:c3:f2:fa:bb:f9:10:a7:d0:94:9b:04:66:
         ba:ba:10:48:1f:b2:65:26:46:db:37:2e:cf:14:d8:93:dc:fb:
         21:8e:cb:8d:52:30:8e:f4:58:ee:89:8c:48:c3:5c:2d:32:b2:
         30:27:85:04:9a:c8:09:21:da:28:ba:73:a3:0d:cc:af:af:c2:
         df:53:1e:ce:4a:76:03:2d:ea:82:d9:96:d1:4a:9f:d2:3b:0b:
         65:23:94:b4
         
         -----BEGIN CERTIFICATE-----
MIIEhjCCA26gAwIBAgIEPI3m2jANBgkqhkiG9w0BAQUFADA9MQswCQYDVQQG
EwJ3dzEPMA0GA1UEChMGZ2xvYmFsMQwwCgYDVQQLEwNwa2kxDzANBgNVBAMT
BnJvb3RjYTAeFw0wMjAzMTIxMTMwMzRaFw0xODAxMDIxMTMwMzRaMEAxCzAJ
BgNVBAYTAnd3MQ8wDQYDVQQKEwZnbG9iYWwxDDAKBgNVBAsTA3BraTESMBAG
A1UEAxMJaXNzdWluZ2NhMIIBIjANBgkqhkiG9w0BAQEFAAOCAQ8AMIIBCgKC
AQEAxpYJs6j15WEac7XHjrgppnF4EolTbE9QfaMDLiC+52aaAyirViPZFn93
fXDFNdsvQYC1WPz0c9YKb5WFcOLad/oXxVbIC7+eB7JbBGCX3tnpN9tzGwNu
ATVPhT4uk8CTvGqw0FO8IGNYPYrThiCCsQZnhbRnzoKvDqMom+XOMe+VMTws
90sY7izz4+dx6ITwsmzC06WzNvgvcAsDfd/hVGYn9X9F6SgS0RQBazCjjpC8
W2FSMO2eRIpB4D8bOFDYV0tUvtWKj1Uu1a00Cb+HRKgqlsd5YMR1P8Omlpo3
YIsfFbqAG5XiKSEdCYYBKWfiAeCf3YwoHm82s0UZoT2nUQIDAQABo4IBiTCC
AYUwDwYDVR0TBAgwBgEB/wIBCTAOBgNVHQ8BAf8EBAMCAf4wggEgBgNVHSAE
ggEXMIIBEzCCAQ8GCysGAQQBnycEAgMCMIH/MIHVBggrBgEFBQcCAjCByBqB
xVJlbGlhbmNlIG9uIHRoaXMgY2VydGlmaWNhdGUgYnkgYW55IHBhcnR5IGFz
c3VtZXMgYWNjZXB0YW5jZSBvZiB0aGUgc3RhbmRhcmQgdGVybXMgYW5kIGNv
bmRpdGlvbnMgb2YgdXNlIGFuZCB0aGUgQ2VydGlmaWNhdGlvbiBQcmFjdGlj
ZSBTdGF0ZW1lbnQgd2hpY2ggY2FuIGJlIGZvdW5kIGF0IHRoZSBDYWJsZSAm
IFdpcmVsZXNzIFdlYlNpdGUuMCUGCCsGAQUFBwIBFhlodHRwOi8vd3d3LmN3
c2VjdXJpdHkubmV0MB8GA1UdIwQYMBaAFKcWdZwCwx9u2RDWkynAxP+FiRF+
MB0GA1UdDgQWBBQ3uQFNMPj8wkkBrek87YNWSLpVdzANBgkqhkiG9w0BAQUF
AAOCAQEAz5FS0JGSuiR36SIsoK5iSAuctiR/3YFjgjqy8W52vT5Dt0Ke/c/Q
zzoz9arY8ZVAtDJeYYEVPBGQq9mg1tRAmG7jKhruCpWbKafj6iukgva92p3j
yiFygzCh8iuIYEabtCIeTnuPMZfx/Vl7b/cvcfsIP+yPMbnqQQduy/BX8Wzx
gpbXYM72woPIsPLWjBi3ADNtC/PWGZMwt9rVMe7SxF+xJtt1+7IAw/L6u/kQ
p9CUmwRmuroQSB+yZSZG2zcuzxTYk9z7IY7LjVIwjvRY7omMSMNcLTKyMCeF
BJrICSHaKLpzow3Mr6/C31Mezkp2Ay3qgtmW0Uqf0jsLZSOUtA==
-----END CERTIFICATE-----
