Certificate:
    Data:
        Version: 3 (0x2)
        Serial Number: 120010508 (0x727370c)
    Signature Algorithm: sha1WithRSAEncryption
        Issuer: C=IE, O=Baltimore, OU=CyberTrust, CN=Baltimore CyberTrust Root
        Validity
            Not Before: Sep  8 17:35:16 2010 GMT
            Not After : Sep  8 17:34:08 2020 GMT
        Subject: O=Cybertrust Inc, CN=Cybertrust Public SureServer SV CA
        Subject Public Key Info:
            Public Key Algorithm: rsaEncryption
                Public-Key: (2048 bit)
                Modulus:
                    00:a3:ba:99:8d:b7:e1:cd:73:88:f9:b9:dd:de:f4:
                    05:f3:25:f5:3f:c5:52:1e:51:5a:3f:9a:ff:4d:84:
                    b7:50:7f:f1:10:8a:5d:7f:64:55:1c:3b:a3:f3:ff:
                    97:7f:1c:4b:ed:6f:7f:e9:54:ec:97:2a:42:03:67:
                    7f:b9:c8:6c:a2:97:f8:40:93:24:c3:25:5e:a5:66:
                    8b:86:bd:d7:b9:26:22:6e:d2:66:83:b3:78:c1:7c:
                    58:76:11:eb:16:55:47:32:f0:b9:34:10:bd:8f:26:
                    a2:25:68:c1:14:2b:a2:73:d6:66:3d:44:87:5c:13:
                    7f:58:91:62:3d:57:7f:6c:ae:42:e8:12:7e:bd:78:
                    f1:f1:ac:5c:35:60:68:45:bc:53:73:87:11:1d:c5:
                    2e:fa:60:35:da:91:f9:da:f2:55:6c:bf:ca:a2:57:
                    5c:c8:64:bc:a9:5b:15:a0:fc:1c:f3:44:2e:bd:06:
                    f2:68:d8:40:2d:bb:b3:61:25:92:93:25:1c:77:46:
                    90:bf:d0:af:b7:83:a0:3c:87:5e:a5:91:a8:ff:c1:
                    31:1b:b6:4b:ac:12:34:08:d5:db:ec:89:87:63:06:
                    a7:53:f8:d5:f5:e6:66:ac:5e:84:65:46:c9:f4:3a:
                    25:0f:6c:cc:0f:66:b8:9a:55:a1:46:6c:fc:91:23:
                    5f:bd
                Exponent: 65537 (0x10001)
        X509v3 extensions:
            X509v3 Basic Constraints: critical
                CA:TRUE, pathlen:0
            X509v3 Certificate Policies: 
                Policy: 1.3.6.1.4.1.6334.1.50
                  CPS: http://cybertrust.omniroot.com/repository

            X509v3 Key Usage: critical
                Certificate Sign, CRL Sign
            X509v3 Authority Key Identifier: 
                keyid:E5:9D:59:30:82:47:58:CC:AC:FA:08:54:36:86:7B:3A:B5:04:4D:F0

            X509v3 CRL Distribution Points: 

                Full Name:
                  URI:http://cdp1.public-trust.com/CRL/Omniroot2025.crl

            X509v3 Subject Key Identifier: 
                04:98:60:DF:80:1B:96:49:5D:65:56:2D:A5:2C:09:24:0A:EC:DC:B9
    Signature Algorithm: sha1WithRSAEncryption
         5f:df:8b:cf:29:79:78:2b:f3:7c:f4:82:5f:79:e0:e1:b3:28:
         bd:08:75:41:ce:8c:88:d7:0e:55:b9:02:b5:05:79:3e:bb:52:
         31:b3:4b:1e:b1:fe:d3:a2:21:43:d2:91:d3:16:fa:6b:79:e4:
         8e:4d:19:ec:4c:86:68:34:52:b7:6f:c2:bd:9c:78:be:f0:6f:
         3f:3d:9e:9f:49:74:c4:7c:97:19:45:57:ac:6f:fa:5a:3e:3f:
         d3:d6:e3:2b:dc:8a:f8:c8:0a:0d:6b:8c:3f:94:78:37:98:88:
         61:91:df:59:14:0f:09:c5:63:54:fb:f4:f6:af:97:ec:fc:63:
         64:43:a6:bc:cc:e4:e3:1f:df:73:b0:6e:f7:b5:c8:29:9b:ae:
         25:52:b8:b4:72:e1:de:93:48:f1:28:9f:7e:66:3f:3f:8b:55:
         0f:f8:16:07:71:05:d7:65:9c:d7:1b:3c:34:e6:44:16:3a:bd:
         d8:60:93:83:83:0c:88:96:65:33:40:df:6a:ac:ff:fe:94:51:
         61:bb:89:3f:f7:ac:c4:e4:b3:47:e2:fd:a2:6a:32:83:e2:7e:
         6f:f0:12:8e:a3:66:76:40:97:fb:11:e1:f7:73:1f:da:8b:1c:
         31:42:8b:9f:11:c5:49:a5:60:ed:48:2b:05:84:15:ab:2f:8a:
         2c:51:72:c0
         
-----BEGIN CERTIFICATE-----
MIIEGzCCAwOgAwIBAgIEByc3DDANBgkqhkiG9w0BAQUFADBaMQswCQYDVQQGEwJJ
RTESMBAGA1UEChMJQmFsdGltb3JlMRMwEQYDVQQLEwpDeWJlclRydXN0MSIwIAYD
VQQDExlCYWx0aW1vcmUgQ3liZXJUcnVzdCBSb290MB4XDTEwMDkwODE3MzUxNloX
DTIwMDkwODE3MzQwOFowRjEXMBUGA1UEChMOQ3liZXJ0cnVzdCBJbmMxKzApBgNV
BAMTIkN5YmVydHJ1c3QgUHVibGljIFN1cmVTZXJ2ZXIgU1YgQ0EwggEiMA0GCSqG
SIb3DQEBAQUAA4IBDwAwggEKAoIBAQCjupmNt+HNc4j5ud3e9AXzJfU/xVIeUVo/
mv9NhLdQf/EQil1/ZFUcO6Pz/5d/HEvtb3/pVOyXKkIDZ3+5yGyil/hAkyTDJV6l
ZouGvde5JiJu0maDs3jBfFh2EesWVUcy8Lk0EL2PJqIlaMEUK6Jz1mY9RIdcE39Y
kWI9V39srkLoEn69ePHxrFw1YGhFvFNzhxEdxS76YDXakfna8lVsv8qiV1zIZLyp
WxWg/BzzRC69BvJo2EAtu7NhJZKTJRx3RpC/0K+3g6A8h16lkaj/wTEbtkusEjQI
1dvsiYdjBqdT+NX15masXoRlRsn0OiUPbMwPZriaVaFGbPyRI1+9AgMBAAGjgfww
gfkwEgYDVR0TAQH/BAgwBgEB/wIBADBPBgNVHSAESDBGMEQGCSsGAQQBsT4BMjA3
MDUGCCsGAQUFBwIBFilodHRwOi8vY3liZXJ0cnVzdC5vbW5pcm9vdC5jb20vcmVw
b3NpdG9yeTAOBgNVHQ8BAf8EBAMCAQYwHwYDVR0jBBgwFoAU5Z1ZMIJHWMys+ghU
NoZ7OrUETfAwQgYDVR0fBDswOTA3oDWgM4YxaHR0cDovL2NkcDEucHVibGljLXRy
dXN0LmNvbS9DUkwvT21uaXJvb3QyMDI1LmNybDAdBgNVHQ4EFgQUBJhg34Ablkld
ZVYtpSwJJArs3LkwDQYJKoZIhvcNAQEFBQADggEBAF/fi88peXgr83z0gl954OGz
KL0IdUHOjIjXDlW5ArUFeT67UjGzSx6x/tOiIUPSkdMW+mt55I5NGexMhmg0Urdv
wr2ceL7wbz89np9JdMR8lxlFV6xv+lo+P9PW4yvcivjICg1rjD+UeDeYiGGR31kU
DwnFY1T79Pavl+z8Y2RDprzM5OMf33Owbve1yCmbriVSuLRy4d6TSPEon35mPz+L
VQ/4FgdxBddlnNcbPDTmRBY6vdhgk4ODDIiWZTNA32qs//6UUWG7iT/3rMTks0fi
/aJqMoPifm/wEo6jZnZAl/sR4fdzH9qLHDFCi58RxUmlYO1IKwWEFasviixRcsA=
-----END CERTIFICATE-----
