
Certificate:
    Data:
        Version: 3 (0x2)
        Serial Number: 1364190624 (0x514fe5a0)
    Signature Algorithm: sha256WithRSAEncryption
        Issuer: C=US, O=U.S. Government, OU=Department of the Treasury, OU=Certification Authorities, OU=OCIO CA
        Validity
            Not Before: Jun 19 16:10:48 2013 GMT
            Not After : Jun 19 16:40:48 2016 GMT
        Subject: C=US, O=U.S. Government, OU=Department of the Treasury, OU=Bureau of the Public Debt, OU=Devices, CN=pki.treas.gov
        Subject Public Key Info:
            Public Key Algorithm: rsaEncryption
                Public-Key: (2048 bit)
                Modulus:
                    00:a9:a1:60:6d:e8:87:6a:b5:55:6c:07:0d:17:48:
                    5c:4a:38:d2:67:d7:e7:e6:71:ba:a6:62:d9:23:98:
                    a2:96:66:15:ed:5b:a8:00:78:7d:89:f0:0a:77:c7:
                    2e:c3:fe:cf:2b:d5:5a:e6:99:79:d3:c9:35:76:62:
                    3f:45:88:fb:4e:65:ee:96:54:e0:c0:39:65:ab:72:
                    f3:9d:97:fd:ba:59:91:75:37:97:73:82:e3:88:95:
                    c9:cb:38:ec:14:e3:8e:7d:b3:03:e4:a4:6d:a7:a5:
                    47:cf:37:eb:56:bc:09:2d:14:5e:fc:73:5e:79:66:
                    ad:c8:25:08:ea:48:a4:ed:fb:6e:63:2a:ba:a8:bf:
                    3c:cd:3b:02:ac:94:c7:56:96:bd:18:d7:c6:49:03:
                    cd:7a:1b:c6:b9:1f:ff:e0:55:28:c4:f7:e0:ca:89:
                    79:3d:fc:42:ac:97:70:f5:bb:e7:83:89:1a:d7:29:
                    8d:41:8f:2e:fd:a5:af:78:b4:1a:0d:08:5b:80:42:
                    00:91:4b:2e:1d:57:ed:f3:80:95:e3:76:9a:d1:95:
                    30:2d:bd:fd:12:17:58:fc:81:27:aa:e0:a4:e0:87:
                    bb:8f:2a:df:4d:47:74:92:48:99:43:32:19:fd:ca:
                    2f:11:b6:f1:eb:68:09:85:9b:59:bf:c4:cb:9d:f3:
                    42:25
                Exponent: 65537 (0x10001)
        X509v3 extensions:
            X509v3 Key Usage: critical
                Digital Signature, Key Encipherment
            X509v3 Certificate Policies: 
                Policy: 2.16.840.1.101.3.2.1.5.3

            Netscape Cert Type: 
                SSL Server
            X509v3 Extended Key Usage: 
                TLS Web Server Authentication
            Authority Information Access: 
                CA Issuers - URI:http://pki.treas.gov/toca_ee_aia.p7c
                CA Issuers - URI:ldap://ldap.treas.gov/ou=OCIO%20CA,ou=Certification%20Authorities,ou=Department%20of%20the%20Treasury,o=U.S.%20Government,c=US?cACertificate;binary
                OCSP - URI:http://ocsp.treas.gov

            X509v3 Subject Alternative Name: 
                email:asb-admin@bpd.treas.gov
            X509v3 CRL Distribution Points: 

                Full Name:
                  URI:http://pki.treas.gov/OCIO_CA3.crl

                Full Name:
                  DirName: C = US, O = U.S. Government, OU = Department of the Treasury, OU = Certification Authorities, OU = OCIO CA, CN = CRL1088
                  URI:ldap://ldap.treas.gov/cn=CRL1088,ou=OCIO%20CA,ou=Certification%20Authorities,ou=Department%20of%20the%20Treasury,o=U.S.%20Government,c=US?certificateRevocationList;binary

            X509v3 Private Key Usage Period: 
                Not Before: Jun 19 16:10:48 2013 GMT, Not After: Jun 19 16:40:48 2016 GMT
            X509v3 Authority Key Identifier: 
                keyid:A2:13:A8:E5:C6:07:54:6C:24:3D:4E:B7:2B:27:A2:A7:71:1A:B5:AF

            X509v3 Subject Key Identifier: 
                8E:AA:56:B0:9B:AD:F4:5C:9F:21:66:65:7C:8A:12:DE:86:18:2E:A9
            1.2.840.113533.7.65.0: 
                0
..V7.1....
    Signature Algorithm: sha256WithRSAEncryption
         11:2a:ca:0b:74:8d:4b:32:41:da:72:fb:a0:21:f7:77:9c:75:
         e0:b9:b0:3f:2e:4e:1c:00:b7:0e:fe:28:67:e4:0a:50:39:f7:
         a2:63:a3:f6:4a:0c:b6:cc:58:e4:50:02:e5:47:d8:e6:27:07:
         ce:14:58:35:ac:f5:69:6f:85:95:85:c8:7d:43:b8:5e:08:0a:
         b8:12:91:11:a4:45:52:cd:8c:22:e5:35:b9:f0:19:cf:85:fc:
         5c:7d:54:f6:31:e4:ad:c1:a4:22:8d:f3:91:12:51:1e:e1:39:
         bf:ca:4c:ca:5f:06:e5:71:66:8c:c7:41:3e:8a:c6:72:e8:b3:
         40:54:e5:c0:a3:42:67:72:88:e6:cc:9a:6a:0c:62:9e:62:ad:
         cd:2e:71:e9:c8:7e:cf:93:16:85:c0:c0:c3:14:89:0f:cc:57:
         b9:17:ba:1f:3a:aa:28:09:46:6e:f5:e7:f5:cc:57:d1:9d:97:
         82:03:19:9d:e2:0e:65:6f:80:f3:02:8a:b8:44:3e:e9:aa:67:
         99:97:27:2b:4a:6e:6d:11:82:f8:df:1f:f6:16:13:e3:56:ce:
         d9:c5:f4:61:3f:ac:98:b9:e4:e1:61:44:44:4f:6c:ef:b5:54:
         1f:a8:36:89:f0:77:e8:e9:03:62:39:72:d6:3b:72:64:38:5d:
         4d:00:7e:45
         

-----BEGIN CERTIFICATE-----
MIIHODCCBiCgAwIBAgIEUU/loDANBgkqhkiG9w0BAQsFADCBgjELMAkGA1UEBhMC
VVMxGDAWBgNVBAoTD1UuUy4gR292ZXJubWVudDEjMCEGA1UECxMaRGVwYXJ0bWVu
dCBvZiB0aGUgVHJlYXN1cnkxIjAgBgNVBAsTGUNlcnRpZmljYXRpb24gQXV0aG9y
aXRpZXMxEDAOBgNVBAsTB09DSU8gQ0EwHhcNMTMwNjE5MTYxMDQ4WhcNMTYwNjE5
MTY0MDQ4WjCBmjELMAkGA1UEBhMCVVMxGDAWBgNVBAoTD1UuUy4gR292ZXJubWVu
dDEjMCEGA1UECxMaRGVwYXJ0bWVudCBvZiB0aGUgVHJlYXN1cnkxIjAgBgNVBAsT
GUJ1cmVhdSBvZiB0aGUgUHVibGljIERlYnQxEDAOBgNVBAsTB0RldmljZXMxFjAU
BgNVBAMTDXBraS50cmVhcy5nb3YwggEiMA0GCSqGSIb3DQEBAQUAA4IBDwAwggEK
AoIBAQCpoWBt6IdqtVVsBw0XSFxKONJn1+fmcbqmYtkjmKKWZhXtW6gAeH2J8Ap3
xy7D/s8r1VrmmXnTyTV2Yj9FiPtOZe6WVODAOWWrcvOdl/26WZF1N5dzguOIlcnL
OOwU4459swPkpG2npUfPN+tWvAktFF78c155Zq3IJQjqSKTt+25jKrqovzzNOwKs
lMdWlr0Y18ZJA816G8a5H//gVSjE9+DKiXk9/EKsl3D1u+eDiRrXKY1Bjy79pa94
tBoNCFuAQgCRSy4dV+3zgJXjdprRlTAtvf0SF1j8gSeq4KTgh7uPKt9NR3SSSJlD
Mhn9yi8RtvHraAmFm1m/xMud80IlAgMBAAGjggOaMIIDljAOBgNVHQ8BAf8EBAMC
BaAwFwYDVR0gBBAwDjAMBgpghkgBZQMCAQUDMBEGCWCGSAGG+EIBAQQEAwIGQDAT
BgNVHSUEDDAKBggrBgEFBQcDATCCAQgGCCsGAQUFBwEBBIH7MIH4MDAGCCsGAQUF
BzAChiRodHRwOi8vcGtpLnRyZWFzLmdvdi90b2NhX2VlX2FpYS5wN2MwgaAGCCsG
AQUFBzAChoGTbGRhcDovL2xkYXAudHJlYXMuZ292L291PU9DSU8lMjBDQSxvdT1D
ZXJ0aWZpY2F0aW9uJTIwQXV0aG9yaXRpZXMsb3U9RGVwYXJ0bWVudCUyMG9mJTIw
dGhlJTIwVHJlYXN1cnksbz1VLlMuJTIwR292ZXJubWVudCxjPVVTP2NBQ2VydGlm
aWNhdGU7YmluYXJ5MCEGCCsGAQUFBzABhhVodHRwOi8vb2NzcC50cmVhcy5nb3Yw
IgYDVR0RBBswGYEXYXNiLWFkbWluQGJwZC50cmVhcy5nb3YwggGJBgNVHR8EggGA
MIIBfDAnoCWgI4YhaHR0cDovL3BraS50cmVhcy5nb3YvT0NJT19DQTMuY3JsMIIB
T6CCAUugggFHpIGXMIGUMQswCQYDVQQGEwJVUzEYMBYGA1UEChMPVS5TLiBHb3Zl
cm5tZW50MSMwIQYDVQQLExpEZXBhcnRtZW50IG9mIHRoZSBUcmVhc3VyeTEiMCAG
A1UECxMZQ2VydGlmaWNhdGlvbiBBdXRob3JpdGllczEQMA4GA1UECxMHT0NJTyBD
QTEQMA4GA1UEAxMHQ1JMMTA4OIaBqmxkYXA6Ly9sZGFwLnRyZWFzLmdvdi9jbj1D
UkwxMDg4LG91PU9DSU8lMjBDQSxvdT1DZXJ0aWZpY2F0aW9uJTIwQXV0aG9yaXRp
ZXMsb3U9RGVwYXJ0bWVudCUyMG9mJTIwdGhlJTIwVHJlYXN1cnksbz1VLlMuJTIw
R292ZXJubWVudCxjPVVTP2NlcnRpZmljYXRlUmV2b2NhdGlvbkxpc3Q7YmluYXJ5
MCsGA1UdEAQkMCKADzIwMTMwNjE5MTYxMDQ4WoEPMjAxNjA2MTkxNjQwNDhaMB8G
A1UdIwQYMBaAFKITqOXGB1RsJD1OtysnoqdxGrWvMB0GA1UdDgQWBBSOqlawm630
XJ8hZmV8ihLehhguqTAZBgkqhkiG9n0HQQAEDDAKGwRWNy4xAwIDqDANBgkqhkiG
9w0BAQsFAAOCAQEAESrKC3SNSzJB2nL7oCH3d5x14LmwPy5OHAC3Dv4oZ+QKUDn3
omOj9koMtsxY5FAC5UfY5icHzhRYNaz1aW+FlYXIfUO4XggKuBKREaRFUs2MIuU1
ufAZz4X8XH1U9jHkrcGkIo3zkRJRHuE5v8pMyl8G5XFmjMdBPorGcuizQFTlwKNC
Z3KI5syaagxinmKtzS5x6ch+z5MWhcDAwxSJD8xXuRe6HzqqKAlGbvXn9cxX0Z2X
ggMZneIOZW+A8wKKuEQ+6apnmZcnK0pubRGC+N8f9hYT41bO2cX0YT+smLnk4WFE
RE9s77VUH6g2ifB36OkDYjly1jtyZDhdTQB+RQ==
-----END CERTIFICATE-----
