Certificate:
    Data:
        Version: 3 (0x2)
        Serial Number:
            38:25:d7:fa:f8:61:af:9e:f4:90:e7:26:b5:d6:5a:d5
        Signature Algorithm: sha1WithRSAEncryption
        Issuer: C=US, O=VeriSign, Inc., CN=VeriSign Time Stamping Services CA
        Validity
            Not Before: Jun 15 00:00:00 2007 GMT
            Not After : Jun 14 23:59:59 2012 GMT
        Subject: C=US, O=VeriSign, Inc., CN=VeriSign Time Stamping Services Signer - G2
        Subject Public Key Info:
            Public Key Algorithm: rsaEncryption
                Public-Key: (1024 bit)
                Modulus:
                    00:c4:b5:f2:52:15:bc:88:86:60:29:16:4a:5b:2f:
                    4b:91:6b:87:91:f3:35:54:58:35:ea:d1:36:5e:62:
                    4d:52:51:34:71:c2:7b:66:1d:89:c8:dd:2a:c4:6a:
                    0a:f6:37:d9:98:74:91:f6:92:ae:b0:b5:76:96:f1:
                    a9:4a:63:45:47:2e:6b:0b:92:4e:4b:2b:8c:ee:58:
                    4a:8b:d4:07:e4:1a:2c:f8:82:aa:58:d9:cd:42:f3:
                    2d:c0:75:de:8d:ab:c7:8e:1d:9a:6c:4c:08:95:1e:
                    de:db:ef:67:e1:72:c2:49:c2:9e:60:3c:e1:e2:be:
                    16:a3:63:78:69:14:7b:ad:2d
                Exponent: 65537 (0x10001)
        X509v3 extensions:
            Authority Information Access:
                OCSP - URI:http://ocsp.verisign.com
 
            X509v3 Basic Constraints: critical
                CA:FALSE
            X509v3 CRL Distribution Points:
 
                Full Name:
                  URI:http://crl.verisign.com/tss-ca.crl
 
            X509v3 Extended Key Usage: critical
                Time Stamping
            X509v3 Key Usage: critical
                Digital Signature, Non Repudiation
            X509v3 Subject Alternative Name:
                DirName:/CN=TSA1-2
    Signature Algorithm: sha1WithRSAEncryption
        50:c5:4b:c8:24:80:df:e4:0d:24:c2:de:1a:b1:a1:02:a1:a6:
        82:2d:0c:83:15:81:37:0a:82:0e:2c:b0:5a:17:61:b5:d8:05:
        fe:88:db:f1:91:91:b3:56:1a:40:a6:eb:92:be:38:39:b0:75:
        36:74:3a:98:4f:e4:37:ba:99:89:ca:95:42:1d:b0:b9:c7:a0:
        8d:57:e0:fa:d5:64:04:42:35:4e:01:d1:33:a2:17:c8:4d:aa:
        27:c7:f2:e1:86:4c:02:38:4d:83:78:c6:fc:53:e0:eb:e0:06:
        87:dd:a4:96:9e:5e:0c:98:e2:a5:be:bf:82:85:c3:60:e1:df:
        ad:28:d8:c7:a5:4b:64:da:c7:1b:5b:bd:ac:39:08:d5:38:22:
        a1:33:8b:2f:8a:9a:eb:bc:07:21:3f:44:41:09:07:b5:65:1c:
        24:bc:48:d3:44:80:eb:a1:cf:c9:02:b4:14:cf:54:c7:16:a3:
        80:5c:f9:79:3e:5d:72:7d:88:17:9e:2c:43:a2:ca:53:ce:7d:
        3d:f6:2a:3a:b8:4f:94:00:a5:6d:0a:83:5d:f9:5e:53:f4:18:
        b3:57:0f:70:c3:fb:f5:ad:95:a0:0e:17:de:c4:16:80:60:c9:
        0f:2b:6e:86:04:f1:eb:f4:78:27:d1:05:c5:ee:34:5b:5e:b9:
        49:32:f2:33
-----BEGIN CERTIFICATE-----
MIIDejCCAmKgAwIBAgIQOCXX+vhhr570kOcmtdZa1TANBgkqhkiG9w0BAQUFADBT
MQswCQYDVQQGEwJVUzEXMBUGA1UEChMOVmVyaVNpZ24sIEluYy4xKzApBgNVBAMT
IlZlcmlTaWduIFRpbWUgU3RhbXBpbmcgU2VydmljZXMgQ0EwHhcNMDcwNjE1MDAw
MDAwWhcNMTIwNjE0MjM1OTU5WjBcMQswCQYDVQQGEwJVUzEXMBUGA1UEChMOVmVy
aVNpZ24sIEluYy4xNDAyBgNVBAMTK1ZlcmlTaWduIFRpbWUgU3RhbXBpbmcgU2Vy
dmljZXMgU2lnbmVyIC0gRzIwgZ8wDQYJKoZIhvcNAQEBBQADgY0AMIGJAoGBAMS1
8lIVvIiGYCkWSlsvS5Frh5HzNVRYNerRNl5iTVJRNHHCe2YdicjdKsRqCvY32Zh0
kfaSrrC1dpbxqUpjRUcuawuSTksrjO5YSovUB+QaLPiCqljZzULzLcB13o2rx44d
mmxMCJUe3tvvZ+FywknCnmA84eK+FqNjeGkUe60tAgMBAAGjgcQwgcEwNAYIKwYB
BQUHAQEEKDAmMCQGCCsGAQUFBzABhhhodHRwOi8vb2NzcC52ZXJpc2lnbi5jb20w
DAYDVR0TAQH/BAIwADAzBgNVHR8ELDAqMCigJqAkhiJodHRwOi8vY3JsLnZlcmlz
aWduLmNvbS90c3MtY2EuY3JsMBYGA1UdJQEB/wQMMAoGCCsGAQUFBwMIMA4GA1Ud
DwEB/wQEAwIGwDAeBgNVHREEFzAVpBMwETEPMA0GA1UEAxMGVFNBMS0yMA0GCSqG
SIb3DQEBBQUAA4IBAQBQxUvIJIDf5A0kwt4asaECoaaCLQyDFYE3CoIOLLBaF2G1
2AX+iNvxkZGzVhpApuuSvjg5sHU2dDqYT+Q3upmJypVCHbC5x6CNV+D61WQEQjVO
AdEzohfITaonx/LhhkwCOE2DeMb8U+Dr4AaH3aSWnl4MmOKlvr+ChcNg4d+tKNjH
pUtk2scbW72sOQjVOCKhM4sviprrvAchP0RBCQe1ZRwkvEjTRIDroc/JArQUz1TH
FqOAXPl5Pl1yfYgXnixDospTzn099io6uE+UAKVtCoNd+V5T9BizVw9ww/v1rZWg
DhfexBaAYMkPK26GBPHr9Hgn0QXF7jRbXrlJMvIz
-----END CERTIFICATE-----

http://www.marben-products.com/cgi-bin/asn1tools/free-online-asn1-decoder.pl
*** DECODING ***
<encoding>
3082037A 30820262 A0030201 02021038 25D7FAF8 61AF9EF4 90E726B5 D65AD530
0D06092A 864886F7 0D010105 05003053 310B3009 06035504 06130255 53311730
15060355 040A130E 56657269 5369676E 2C20496E 632E312B 30290603 55040313
22566572 69536967 6E205469 6D652053 74616D70 696E6720 53657276 69636573
20434130 1E170D30 37303631 35303030 3030305A 170D3132 30363134 32333539
35395A30 5C310B30 09060355 04061302 55533117 30150603 55040A13 0E566572
69536967 6E2C2049 6E632E31 34303206 03550403 132B5665 72695369 676E2054
696D6520 5374616D 70696E67 20536572 76696365 73205369 676E6572 202D2047
3230819F 300D0609 2A864886 F70D0101 01050003 818D0030 81890281 8100C4B5
F25215BC 88866029 164A5B2F 4B916B87 91F33554 5835EAD1 365E624D 52513471
C27B661D 89C8DD2A C46A0AF6 37D99874 91F692AE B0B57696 F1A94A63 45472E6B
0B924E4B 2B8CEE58 4A8BD407 E41A2CF8 82AA58D9 CD42F32D C075DE8D ABC78E1D
9A6C4C08 951EDEDB EF67E172 C249C29E 603CE1E2 BE16A363 7869147B AD2D0203
010001A3 81C43081 C1303406 082B0601 05050701 01042830 26302406 082B0601
05050730 01861868 7474703A 2F2F6F63 73702E76 65726973 69676E2E 636F6D30
0C060355 1D130101 FF040230 00303306 03551D1F 042C302A 3028A026 A0248622
68747470 3A2F2F63 726C2E76 65726973 69676E2E 636F6D2F 7473732D 63612E63
726C3016 0603551D 250101FF 040C300A 06082B06 01050507 0308300E 0603551D
0F0101FF 04040302 06C0301E 0603551D 11041730 15A41330 11310F30 0D060355
04031306 54534131 2D32300D 06092A86 4886F70D 01010505 00038201 010050C5
4BC82480 DFE40D24 C2DE1AB1 A102A1A6 822D0C83 1581370A 820E2CB0 5A1761B5
D805FE88 DBF19191 B3561A40 A6EB92BE 3839B075 36743A98 4FE437BA 9989CA95
421DB0B9 C7A08D57 E0FAD564 0442354E 01D133A2 17C84DAA 27C7F2E1 864C0238
4D8378C6 FC53E0EB E00687DD A4969E5E 0C98E2A5 BEBF8285 C360E1DF AD28D8C7
A54B64DA C71B5BBD AC3908D5 3822A133 8B2F8A9A EBBC0721 3F444109 07B5651C
24BC48D3 4480EBA1 CFC902B4 14CF54C7 16A3805C F9793E5D 727D8817 9E2C43A2
CA53CE7D 3DF62A3A B84F9400 A56D0A83 5DF95E53 F418B357 0F70C3FB F5AD95A0
0E17DEC4 168060C9 0F2B6E86 04F1EBF4 7827D105 C5EE345B 5EB94932 F233
</encoding>

<Certificate>
  <tbsCertificate>
    <version>2</version>
    <serialNumber>74633263349696868766633472187954518741</serialNumber>
    <signature>
      <algorithm>1.2.840.113549.1.1.5</algorithm>
      <parameters>0500</parameters>
    </signature>
    <issuer>
      <rdnSequence>
        <RelativeDistinguishedName>
          <AttributeTypeAndValue>
            <type>2.5.4.6</type>
            <value>
              <printableString>US</printableString>
            </value>
          </AttributeTypeAndValue>
        </RelativeDistinguishedName>
        <RelativeDistinguishedName>
          <AttributeTypeAndValue>
            <type>2.5.4.10</type>
            <value>
              <printableString>VeriSign, Inc.</printableString>
            </value>
          </AttributeTypeAndValue>
        </RelativeDistinguishedName>
        <RelativeDistinguishedName>
          <AttributeTypeAndValue>
            <type>2.5.4.3</type>
            <value>
              <printableString>VeriSign Time Stamping Services CA</printableString>
            </value>
          </AttributeTypeAndValue>
        </RelativeDistinguishedName>
      </rdnSequence>
    </issuer>
    <validity>
      <notBefore>
        <utcTime>070615000000Z</utcTime>
      </notBefore>
      <notAfter>
        <utcTime>120614235959Z</utcTime>
      </notAfter>
    </validity>
    <subject>
      <rdnSequence>
        <RelativeDistinguishedName>
          <AttributeTypeAndValue>
            <type>2.5.4.6</type>
            <value>
              <printableString>US</printableString>
            </value>
          </AttributeTypeAndValue>
        </RelativeDistinguishedName>
        <RelativeDistinguishedName>
          <AttributeTypeAndValue>
            <type>2.5.4.10</type>
            <value>
              <printableString>VeriSign, Inc.</printableString>
            </value>
          </AttributeTypeAndValue>
        </RelativeDistinguishedName>
        <RelativeDistinguishedName>
          <AttributeTypeAndValue>
            <type>2.5.4.3</type>
            <value>
              <printableString>VeriSign Time Stamping Services Signer - G2</printableString>
            </value>
          </AttributeTypeAndValue>
        </RelativeDistinguishedName>
      </rdnSequence>
    </subject>
    <subjectPublicKeyInfo>
      <algorithm>
        <algorithm>1.2.840.113549.1.1.1</algorithm>
        <parameters>0500</parameters>
      </algorithm>
      <subjectPublicKey>
        0011000010000001100010010000001010000001100000010000000011000100101101011111001001010010000101011011110010001000100001100110000000101001000101100100101001011011001011110100101110010001011010111000011110010001111100110011010101010100010110000011010111101010<!--...-->
      </subjectPublicKey>
    </subjectPublicKeyInfo>
    <extensions>
      <Extension>
        <extnID>1.3.6.1.5.5.7.1.1</extnID>
        <extnValue>3026302406082B060105050730018618687474703A2F2F6F6373702E766572697369676E2E636F6D</extnValue>
      </Extension>
      <Extension>
        <extnID>2.5.29.19</extnID>
        <critical>
          <true/>
        </critical>
        <extnValue>3000</extnValue>
      </Extension>
      <Extension>
        <extnID>2.5.29.31</extnID>
        <extnValue>302A3028A026A0248622687474703A2F2F63726C2E766572697369676E2E636F6D2F7473732D63612E63726C</extnValue>
      </Extension>
      <Extension>
        <extnID>2.5.29.37</extnID>
        <critical>
          <true/>
        </critical>
        <extnValue>300A06082B06010505070308</extnValue>
      </Extension>
      <Extension>
        <extnID>2.5.29.15</extnID>
        <critical>
          <true/>
        </critical>
        <extnValue>030206C0</extnValue>
      </Extension>
      <Extension>
        <extnID>2.5.29.17</extnID>
        <extnValue>3015A4133011310F300D06035504031306545341312D32</extnValue>
      </Extension>
    </extensions>
  </tbsCertificate>
  <signatureAlgorithm>
    <algorithm>1.2.840.113549.1.1.5</algorithm>
    <parameters>0500</parameters>
  </signatureAlgorithm>
  <signature>
    0101000011000101010010111100100000100100100000001101111111100100000011010010010011000010110111100001101010110001101000010000001010100001101001101000001000101101000011001000001100010101100000010011011100001010100000100000111000101100101100000101101000010111<!--...-->
  </signature>
</Certificate>

894 bytes supplied, 894 bytes decoded.
*** DECODING SUCCESSFUL ***
