Certificate:
    Data:
        Version: 3 (0x2)
        Serial Number: 0 (0x0)
    Signature Algorithm: sha1WithRSAEncryption
        Issuer: C=US, ST=California, L=Sunnyvale, O=Fortinet, OU=Certificate Authority, CN=FortiGate CA/emailAddress=support@fortinet.com
        Validity
            Not Before: Oct 18 00:46:39 2008 GMT
            Not After : Oct 13 00:46:39 2028 GMT
        Subject: C=US, ST=California, L=Sunnyvale, O=Fortinet, OU=Certificate Authority, CN=FortiGate CA/emailAddress=support@fortinet.com
        Subject Public Key Info:
            Public Key Algorithm: rsaEncryption
                Public-Key: (2048 bit)
                Modulus:
                    00:b6:f7:83:ab:9b:d5:89:2b:11:80:74:4e:6b:29:
                    6d:d2:a3:1d:b5:e2:e2:d4:3f:cb:d0:05:9c:b7:e8:
                    f9:63:e3:7e:1e:c9:01:aa:c2:b9:78:61:eb:83:2b:
                    56:e8:9a:f7:76:d4:3f:e7:7f:ee:b1:32:3e:f0:71:
                    e9:3d:78:fc:81:6b:a7:7b:a8:af:8d:07:0e:02:61:
                    ac:07:f8:1f:c0:b3:c2:6b:df:3e:90:b8:28:f7:0a:
                    6e:d0:dc:4b:55:bc:94:8b:91:7d:3a:31:6d:32:91:
                    06:b1:89:67:bb:a8:ed:ae:c2:11:f0:4a:27:02:76:
                    94:b5:82:82:a8:f2:cd:49:57:3f:53:de:d9:5f:d9:
                    bb:cf:28:cb:60:41:84:36:dd:8c:7a:59:c0:79:30:
                    cd:cb:65:47:77:1b:e3:0a:41:c1:65:8b:88:f2:5c:
                    a0:b5:0b:05:bc:01:9d:bc:7b:28:20:61:0a:82:72:
                    c7:6f:27:0b:09:65:24:d6:3f:66:4e:46:01:d1:01:
                    4a:59:dc:b8:e6:3b:2f:ad:41:27:68:4b:96:06:52:
                    0a:35:91:20:cb:cb:88:d7:05:bf:46:db:f5:1c:76:
                    e8:7e:e5:ab:ff:68:13:21:a8:20:3e:32:16:b2:16:
                    a4:b0:f0:39:c1:7b:61:d4:de:69:04:ca:cf:3b:13:
                    68:1f
                Exponent: 65537 (0x10001)
        X509v3 extensions:
            X509v3 Basic Constraints: 
                CA:TRUE
    Signature Algorithm: sha1WithRSAEncryption
         6b:01:f2:3e:50:bc:20:dc:cf:a4:e2:cd:c5:07:af:ff:ea:c3:
         c6:e5:37:2b:bc:f7:6b:43:c8:00:ac:47:98:24:90:b3:1e:75:
         58:b6:49:c8:3c:fc:75:2b:95:7e:42:e7:80:5d:1a:4b:8a:e5:
         a9:84:53:f9:c3:d3:b1:5a:e0:ea:1f:0f:33:c1:bd:b8:c0:97:
         3b:04:3e:02:78:52:94:c9:88:a7:6e:90:e2:62:0d:37:e5:22:
         98:97:84:d2:18:c3:93:89:84:68:4f:1a:a0:91:fc:dc:99:31:
         5f:a5:f0:f5:a4:e2:50:d3:c2:a1:fb:5c:a5:7b:7e:56:a8:6f:
         40:6f:58:eb:3b:46:3f:be:5b:46:45:e6:5c:93:08:7d:7b:de:
         52:3f:33:40:e3:7c:46:64:f4:88:83:16:7c:d3:4e:c4:52:a6:
         01:7a:4a:12:28:60:10:3e:a4:da:94:70:64:ce:90:75:52:cd:
         c5:e7:20:99:cf:10:38:59:84:fd:50:65:70:3e:12:15:80:c9:
         59:be:6e:4d:2f:6f:7f:e5:d1:60:b6:ce:75:53:e3:f8:39:9d:
         0e:af:ec:50:7d:66:08:c5:3c:c2:5a:d0:02:d6:29:19:ff:a1:
         de:22:f7:ad:db:b1:f8:08:f3:f5:ae:89:41:4d:7c:38:cf:aa:
         25:3f:7d:93
         
-----BEGIN CERTIFICATE-----
MIID1zCCAr+gAwIBAgIBADANBgkqhkiG9w0BAQUFADCBpTELMAkGA1UEBhMCVVMx
EzARBgNVBAgTCkNhbGlmb3JuaWExEjAQBgNVBAcTCVN1bm55dmFsZTERMA8GA1UE
ChMIRm9ydGluZXQxHjAcBgNVBAsTFUNlcnRpZmljYXRlIEF1dGhvcml0eTEVMBMG
A1UEAxMMRm9ydGlHYXRlIENBMSMwIQYJKoZIhvcNAQkBFhRzdXBwb3J0QGZvcnRp
bmV0LmNvbTAeFw0wODEwMTgwMDQ2MzlaFw0yODEwMTMwMDQ2MzlaMIGlMQswCQYD
VQQGEwJVUzETMBEGA1UECBMKQ2FsaWZvcm5pYTESMBAGA1UEBxMJU3Vubnl2YWxl
MREwDwYDVQQKEwhGb3J0aW5ldDEeMBwGA1UECxMVQ2VydGlmaWNhdGUgQXV0aG9y
aXR5MRUwEwYDVQQDEwxGb3J0aUdhdGUgQ0ExIzAhBgkqhkiG9w0BCQEWFHN1cHBv
cnRAZm9ydGluZXQuY29tMIIBIjANBgkqhkiG9w0BAQEFAAOCAQ8AMIIBCgKCAQEA
tveDq5vViSsRgHROaylt0qMdteLi1D/L0AWct+j5Y+N+HskBqsK5eGHrgytW6Jr3
dtQ/53/usTI+8HHpPXj8gWune6ivjQcOAmGsB/gfwLPCa98+kLgo9wpu0NxLVbyU
i5F9OjFtMpEGsYlnu6jtrsIR8EonAnaUtYKCqPLNSVc/U97ZX9m7zyjLYEGENt2M
elnAeTDNy2VHdxvjCkHBZYuI8lygtQsFvAGdvHsoIGEKgnLHbycLCWUk1j9mTkYB
0QFKWdy45jsvrUEnaEuWBlIKNZEgy8uI1wW/Rtv1HHbofuWr/2gTIaggPjIWshak
sPA5wXth1N5pBMrPOxNoHwIDAQABoxAwDjAMBgNVHRMEBTADAQH/MA0GCSqGSIb3
DQEBBQUAA4IBAQBrAfI+ULwg3M+k4s3FB6//6sPG5TcrvPdrQ8gArEeYJJCzHnVY
tknIPPx1K5V+QueAXRpLiuWphFP5w9OxWuDqHw8zwb24wJc7BD4CeFKUyYinbpDi
Yg035SKYl4TSGMOTiYRoTxqgkfzcmTFfpfD1pOJQ08Kh+1yle35WqG9Ab1jrO0Y/
vltGReZckwh9e95SPzNA43xGZPSIgxZ8007EUqYBekoSKGAQPqTalHBkzpB1Us3F
5yCZzxA4WYT9UGVwPhIVgMlZvm5NL29/5dFgts51U+P4OZ0Or+xQfWYIxTzCWtAC
1ikZ/6HeIvet27H4CPP1rolBTXw4z6olP32T
-----END CERTIFICATE-----
